; Function Attrs: mustprogress uwtable
define noundef i32 @_ZNK6icu_7519FilteredNormalizer210quickCheckERKNS_13UnicodeStringER10UErrorCode(ptr nocapture noundef nonnull readonly align 8 dereferenceable(24) %this, ptr noundef nonnull align 8 dereferenceable(64) %s, ptr noundef nonnull align 4 dereferenceable(4) %errorCode) unnamed_addr #2 align 2 personality ptr @__gxx_personality_v0 {
entry:
  %ref.tmp = alloca %"class.icu_75::UnicodeString", align 8
  %0 = load i32, ptr %errorCode, align 4
  %cmp.i.i = icmp sgt i32 %0, 0
  br i1 %cmp.i.i, label %return, label %land.lhs.true.i

land.lhs.true.i:                                  ; preds = %entry
  %fUnion.i.i = getelementptr inbounds i8, ptr %s, i64 8
  %1 = load i16, ptr %fUnion.i.i, align 8
  %conv2.i2.i = and i16 %1, 1
  %tobool2.not.i = icmp eq i16 %conv2.i2.i, 0
  br i1 %tobool2.not.i, label %for.cond.preheader, label %if.then.i

if.then.i:                                        ; preds = %land.lhs.true.i
  store i32 1, ptr %errorCode, align 4
  br label %return

for.cond.preheader:                               ; preds = %land.lhs.true.i
  %fUnion.i.i14 = getelementptr inbounds i8, ptr %s, i64 8
  %fLength.i = getelementptr inbounds i8, ptr %s, i64 12
  %2 = load i16, ptr %fUnion.i.i14, align 8
  %cmp.i.i1520 = icmp slt i16 %2, 0
  %3 = ashr i16 %2, 5
  %shr.i.i21 = sext i16 %3 to i32
  %4 = load i32, ptr %fLength.i, align 4
  %cond.i22 = select i1 %cmp.i.i1520, i32 %4, i32 %shr.i.i21
  %cmp23 = icmp sgt i32 %cond.i22, 0
  br i1 %cmp23, label %for.body.lr.ph, label %return

for.body.lr.ph:                                   ; preds = %for.cond.preheader
  %set = getelementptr inbounds i8, ptr %this, i64 16
  %fBuffer.i.i = getelementptr inbounds i8, ptr %s, i64 10
  %fArray.i.i = getelementptr inbounds i8, ptr %s, i64 24
  %norm2 = getelementptr inbounds i8, ptr %this, i64 8
  br label %for.body

for.body:                                         ; preds = %for.body.lr.ph, %if.end16
  %cond.i27 = phi i32 [ %cond.i22, %for.body.lr.ph ], [ %cond.i, %if.end16 ]
  %5 = phi i16 [ %2, %for.body.lr.ph ], [ %12, %if.end16 ]
  %result.026 = phi i32 [ 1, %for.body.lr.ph ], [ %result.2, %if.end16 ]
  %spanCondition.025 = phi i32 [ 2, %for.body.lr.ph ], [ %spanCondition.1, %if.end16 ]
  %prevSpanLimit.024 = phi i32 [ 0, %for.body.lr.ph ], [ %add.i, %if.end16 ]
  %6 = load ptr, ptr %set, align 8
  %conv1.i.i = zext i16 %5 to i32
  %and.i.i = and i32 %conv1.i.i, 17
  %tobool.not.i.i = icmp eq i32 %and.i.i, 0
  %and5.i.i = and i32 %conv1.i.i, 2
  %tobool6.not.i.i = icmp eq i32 %and5.i.i, 0
  %7 = load ptr, ptr %fArray.i.i, align 8
  %spec.select29 = select i1 %tobool6.not.i.i, ptr %7, ptr %fBuffer.i.i
  %retval.0.i.i = select i1 %tobool.not.i.i, ptr %spec.select29, ptr null
  %start.addr.0.i = call i32 @llvm.smax.i32(i32 %prevSpanLimit.024, i32 0)
  %idx.ext.i = zext nneg i32 %start.addr.0.i to i64
  %add.ptr.i = getelementptr inbounds i16, ptr %retval.0.i.i, i64 %idx.ext.i
  %sub.i = sub nsw i32 %cond.i27, %start.addr.0.i
  %call6.i = call noundef i32 @_ZNK6icu_7510UnicodeSet4spanEPKDsi17USetSpanCondition(ptr noundef nonnull align 8 dereferenceable(200) %6, ptr noundef %add.ptr.i, i32 noundef %sub.i, i32 noundef %spanCondition.025)
  %add.i = add nsw i32 %call6.i, %start.addr.0.i
  %cmp4 = icmp eq i32 %spanCondition.025, 0
  br i1 %cmp4, label %if.end16, label %if.else

if.else:                                          ; preds = %for.body
  %8 = load ptr, ptr %norm2, align 8
  %sub.i17 = sub nsw i32 %add.i, %prevSpanLimit.024
  call void @_ZNK6icu_7513UnicodeString13tempSubStringEii(ptr nonnull sret(%"class.icu_75::UnicodeString") align 8 %ref.tmp, ptr noundef nonnull align 8 dereferenceable(64) %s, i32 noundef %prevSpanLimit.024, i32 noundef %sub.i17)
  %vtable = load ptr, ptr %8, align 8
  %vfn = getelementptr inbounds i8, ptr %vtable, i64 104
  %9 = load ptr, ptr %vfn, align 8
  %call6 = invoke noundef i32 %9(ptr noundef nonnull align 8 dereferenceable(8) %8, ptr noundef nonnull align 8 dereferenceable(64) %ref.tmp, ptr noundef nonnull align 4 dereferenceable(4) %errorCode)
          to label %invoke.cont unwind label %lpad

invoke.cont:                                      ; preds = %if.else
  call void @_ZN6icu_7513UnicodeStringD1Ev(ptr noundef nonnull align 8 dereferenceable(64) %ref.tmp) #5
  %10 = load i32, ptr %errorCode, align 4
  %cmp.i18 = icmp sgt i32 %10, 0
  %cmp9 = icmp eq i32 %call6, 0
  %or.cond = or i1 %cmp9, %cmp.i18
  br i1 %or.cond, label %return, label %if.else11

lpad:                                             ; preds = %if.else
  %11 = landingpad { ptr, i32 }
          cleanup
  call void @_ZN6icu_7513UnicodeStringD1Ev(ptr noundef nonnull align 8 dereferenceable(64) %ref.tmp) #5
  resume { ptr, i32 } %11

if.else11:                                        ; preds = %invoke.cont
  %cmp12 = icmp eq i32 %call6, 2
  %spec.select = select i1 %cmp12, i32 2, i32 %result.026
  br label %if.end16

if.end16:                                         ; preds = %for.body, %if.else11
  %spanCondition.1 = phi i32 [ 0, %if.else11 ], [ 2, %for.body ]
  %result.2 = phi i32 [ %spec.select, %if.else11 ], [ %result.026, %for.body ]
  %12 = load i16, ptr %fUnion.i.i14, align 8
  %cmp.i.i15 = icmp slt i16 %12, 0
  %13 = ashr i16 %12, 5
  %shr.i.i = sext i16 %13 to i32
  %14 = load i32, ptr %fLength.i, align 4
  %cond.i = select i1 %cmp.i.i15, i32 %14, i32 %shr.i.i
  %cmp = icmp slt i32 %add.i, %cond.i
  br i1 %cmp, label %for.body, label %return, !llvm.loop !9

return:                                           ; preds = %invoke.cont, %if.end16, %if.then.i, %entry, %for.cond.preheader
  %retval.0 = phi i32 [ 1, %for.cond.preheader ], [ 2, %entry ], [ 2, %if.then.i ], [ %call6, %invoke.cont ], [ %result.2, %if.end16 ]
  ret i32 %retval.0
}